target datalayout = "e-m:e-p270:32:32-p271:32:32-p272:64:64-i64:64-i128:128-f80:128-n8:16:32:64-S128"
target triple = "x86_64-pc-linux-gnu"

%struct.Fra_Cla_t_ = type { ptr, ptr, ptr, ptr, ptr, ptr, ptr, ptr, ptr, i32, i32, ptr, ptr, ptr, ptr }
%struct.Vec_Ptr_t_ = type { i32, i32, ptr }
%struct.Vec_Int_t_ = type { i32, i32, ptr }

; Function Attrs: inlinehint nounwind uwtable
define internal void @Vec_IntFree(ptr noundef %0) #4 {
  %2 = alloca ptr, align 8
  store ptr %0, ptr %2, align 8, !tbaa !43
  %3 = load ptr, ptr %2, align 8, !tbaa !43
  %4 = getelementptr inbounds nuw %struct.Vec_Int_t_, ptr %3, i32 0, i32 2
  %5 = load ptr, ptr %4, align 8, !tbaa !44
  %6 = icmp ne ptr %5, null
  br i1 %6, label %7, label %13

7:                                                ; preds = %1
  %8 = load ptr, ptr %2, align 8, !tbaa !43
  %9 = getelementptr inbounds nuw %struct.Vec_Int_t_, ptr %8, i32 0, i32 2
  %10 = load ptr, ptr %9, align 8, !tbaa !44
  call void @free(ptr noundef %10) #10
  %11 = load ptr, ptr %2, align 8, !tbaa !43
  %12 = getelementptr inbounds nuw %struct.Vec_Int_t_, ptr %11, i32 0, i32 2
  store ptr null, ptr %12, align 8, !tbaa !44
  br label %14

13:                                               ; preds = %1
  br label %14

14:                                               ; preds = %13, %7
  %15 = load ptr, ptr %2, align 8, !tbaa !43
  %16 = icmp ne ptr %15, null
  br i1 %16, label %17, label %19

17:                                               ; preds = %14
  %18 = load ptr, ptr %2, align 8, !tbaa !43
  call void @free(ptr noundef %18) #10
  store ptr null, ptr %2, align 8, !tbaa !43
  br label %20

19:                                               ; preds = %14
  br label %20

20:                                               ; preds = %19, %17
  ret void
}

; Function Attrs: inlinehint nounwind uwtable
define internal void @Vec_PtrFree(ptr noundef %0) #4 {
  %2 = alloca ptr, align 8
  store ptr %0, ptr %2, align 8, !tbaa !36
  %3 = load ptr, ptr %2, align 8, !tbaa !36
  %4 = getelementptr inbounds nuw %struct.Vec_Ptr_t_, ptr %3, i32 0, i32 2
  %5 = load ptr, ptr %4, align 8, !tbaa !40
  %6 = icmp ne ptr %5, null
  br i1 %6, label %7, label %13

7:                                                ; preds = %1
  %8 = load ptr, ptr %2, align 8, !tbaa !36
  %9 = getelementptr inbounds nuw %struct.Vec_Ptr_t_, ptr %8, i32 0, i32 2
  %10 = load ptr, ptr %9, align 8, !tbaa !40
  call void @free(ptr noundef %10) #10
  %11 = load ptr, ptr %2, align 8, !tbaa !36
  %12 = getelementptr inbounds nuw %struct.Vec_Ptr_t_, ptr %11, i32 0, i32 2
  store ptr null, ptr %12, align 8, !tbaa !40
  br label %14

13:                                               ; preds = %1
  br label %14

14:                                               ; preds = %13, %7
  %15 = load ptr, ptr %2, align 8, !tbaa !36
  %16 = icmp ne ptr %15, null
  br i1 %16, label %17, label %19

17:                                               ; preds = %14
  %18 = load ptr, ptr %2, align 8, !tbaa !36
  call void @free(ptr noundef %18) #10
  store ptr null, ptr %2, align 8, !tbaa !36
  br label %20

19:                                               ; preds = %14
  br label %20

20:                                               ; preds = %19, %17
  ret void
}

; Function Attrs: nounwind uwtable
define void @Fra_ClassesStop(ptr noundef %0) #0 {
  %2 = alloca ptr, align 8
  store ptr %0, ptr %2, align 8, !tbaa !8
  %3 = load ptr, ptr %2, align 8, !tbaa !8
  %4 = getelementptr inbounds nuw %struct.Fra_Cla_t_, ptr %3, i32 0, i32 5
  %5 = load ptr, ptr %4, align 8, !tbaa !41
  %6 = icmp ne ptr %5, null
  br i1 %6, label %7, label %13

7:                                                ; preds = %1
  %8 = load ptr, ptr %2, align 8, !tbaa !8
  %9 = getelementptr inbounds nuw %struct.Fra_Cla_t_, ptr %8, i32 0, i32 5
  %10 = load ptr, ptr %9, align 8, !tbaa !41
  call void @free(ptr noundef %10) #10
  %11 = load ptr, ptr %2, align 8, !tbaa !8
  %12 = getelementptr inbounds nuw %struct.Fra_Cla_t_, ptr %11, i32 0, i32 5
  store ptr null, ptr %12, align 8, !tbaa !41
  br label %14

13:                                               ; preds = %1
  br label %14

14:                                               ; preds = %13, %7
  %15 = load ptr, ptr %2, align 8, !tbaa !8
  %16 = getelementptr inbounds nuw %struct.Fra_Cla_t_, ptr %15, i32 0, i32 1
  %17 = load ptr, ptr %16, align 8, !tbaa !16
  %18 = icmp ne ptr %17, null
  br i1 %18, label %19, label %25

19:                                               ; preds = %14
  %20 = load ptr, ptr %2, align 8, !tbaa !8
  %21 = getelementptr inbounds nuw %struct.Fra_Cla_t_, ptr %20, i32 0, i32 1
  %22 = load ptr, ptr %21, align 8, !tbaa !16
  call void @free(ptr noundef %22) #10
  %23 = load ptr, ptr %2, align 8, !tbaa !8
  %24 = getelementptr inbounds nuw %struct.Fra_Cla_t_, ptr %23, i32 0, i32 1
  store ptr null, ptr %24, align 8, !tbaa !16
  br label %26

25:                                               ; preds = %14
  br label %26

26:                                               ; preds = %25, %19
  %27 = load ptr, ptr %2, align 8, !tbaa !8
  %28 = getelementptr inbounds nuw %struct.Fra_Cla_t_, ptr %27, i32 0, i32 4
  %29 = load ptr, ptr %28, align 8, !tbaa !19
  %30 = icmp ne ptr %29, null
  br i1 %30, label %31, label %35

31:                                               ; preds = %26
  %32 = load ptr, ptr %2, align 8, !tbaa !8
  %33 = getelementptr inbounds nuw %struct.Fra_Cla_t_, ptr %32, i32 0, i32 4
  %34 = load ptr, ptr %33, align 8, !tbaa !19
  call void @Vec_PtrFree(ptr noundef %34)
  br label %35

35:                                               ; preds = %31, %26
  %36 = load ptr, ptr %2, align 8, !tbaa !8
  %37 = getelementptr inbounds nuw %struct.Fra_Cla_t_, ptr %36, i32 0, i32 8
  %38 = load ptr, ptr %37, align 8, !tbaa !21
  %39 = icmp ne ptr %38, null
  br i1 %39, label %40, label %44

40:                                               ; preds = %35
  %41 = load ptr, ptr %2, align 8, !tbaa !8
  %42 = getelementptr inbounds nuw %struct.Fra_Cla_t_, ptr %41, i32 0, i32 8
  %43 = load ptr, ptr %42, align 8, !tbaa !21
  call void @Vec_PtrFree(ptr noundef %43)
  br label %44

44:                                               ; preds = %40, %35
  %45 = load ptr, ptr %2, align 8, !tbaa !8
  %46 = getelementptr inbounds nuw %struct.Fra_Cla_t_, ptr %45, i32 0, i32 7
  %47 = load ptr, ptr %46, align 8, !tbaa !20
  %48 = icmp ne ptr %47, null
  br i1 %48, label %49, label %53

49:                                               ; preds = %44
  %50 = load ptr, ptr %2, align 8, !tbaa !8
  %51 = getelementptr inbounds nuw %struct.Fra_Cla_t_, ptr %50, i32 0, i32 7
  %52 = load ptr, ptr %51, align 8, !tbaa !20
  call void @Vec_PtrFree(ptr noundef %52)
  br label %53

53:                                               ; preds = %49, %44
  %54 = load ptr, ptr %2, align 8, !tbaa !8
  %55 = getelementptr inbounds nuw %struct.Fra_Cla_t_, ptr %54, i32 0, i32 3
  %56 = load ptr, ptr %55, align 8, !tbaa !18
  %57 = icmp ne ptr %56, null
  br i1 %57, label %58, label %62

58:                                               ; preds = %53
  %59 = load ptr, ptr %2, align 8, !tbaa !8
  %60 = getelementptr inbounds nuw %struct.Fra_Cla_t_, ptr %59, i32 0, i32 3
  %61 = load ptr, ptr %60, align 8, !tbaa !18
  call void @Vec_PtrFree(ptr noundef %61)
  br label %62

62:                                               ; preds = %58, %53
  %63 = load ptr, ptr %2, align 8, !tbaa !8
  %64 = getelementptr inbounds nuw %struct.Fra_Cla_t_, ptr %63, i32 0, i32 2
  %65 = load ptr, ptr %64, align 8, !tbaa !17
  %66 = icmp ne ptr %65, null
  br i1 %66, label %67, label %71

67:                                               ; preds = %62
  %68 = load ptr, ptr %2, align 8, !tbaa !8
  %69 = getelementptr inbounds nuw %struct.Fra_Cla_t_, ptr %68, i32 0, i32 2
  %70 = load ptr, ptr %69, align 8, !tbaa !17
  call void @Vec_PtrFree(ptr noundef %70)
  br label %71

71:                                               ; preds = %67, %62
  %72 = load ptr, ptr %2, align 8, !tbaa !8
  %73 = getelementptr inbounds nuw %struct.Fra_Cla_t_, ptr %72, i32 0, i32 11
  %74 = load ptr, ptr %73, align 8, !tbaa !42
  %75 = icmp ne ptr %74, null
  br i1 %75, label %76, label %80

76:                                               ; preds = %71
  %77 = load ptr, ptr %2, align 8, !tbaa !8
  %78 = getelementptr inbounds nuw %struct.Fra_Cla_t_, ptr %77, i32 0, i32 11
  %79 = load ptr, ptr %78, align 8, !tbaa !42
  call void @Vec_IntFree(ptr noundef %79)
  br label %80

80:                                               ; preds = %76, %71
  %81 = load ptr, ptr %2, align 8, !tbaa !8
  %82 = icmp ne ptr %81, null
  br i1 %82, label %83, label %85

83:                                               ; preds = %80
  %84 = load ptr, ptr %2, align 8, !tbaa !8
  call void @free(ptr noundef %84) #10
  store ptr null, ptr %2, align 8, !tbaa !8
  br label %86

85:                                               ; preds = %80
  br label %86

86:                                               ; preds = %85, %83
  ret void
}