; Function Attrs: mustprogress nounwind willreturn uwtable
define void @Fra_ClassesStop(ptr noundef captures(none) %0) local_unnamed_addr #4 {
  %2 = getelementptr inbounds nuw i8, ptr %0, i64 40
  %3 = load ptr, ptr %2, align 8, !tbaa !36
  %.not = icmp eq ptr %3, null
  br i1 %.not, label %5, label %4

4:                                                ; preds = %1
  tail call void @free(ptr noundef nonnull %3) #18
  store ptr null, ptr %2, align 8, !tbaa !36
  br label %5

5:                                                ; preds = %1, %4
  %6 = getelementptr inbounds nuw i8, ptr %0, i64 8
  %7 = load ptr, ptr %6, align 8, !tbaa !25
  %.not28 = icmp eq ptr %7, null
  br i1 %.not28, label %9, label %8

8:                                                ; preds = %5
  tail call void @free(ptr noundef nonnull %7) #18
  store ptr null, ptr %6, align 8, !tbaa !25
  br label %9

9:                                                ; preds = %5, %8
  %10 = getelementptr inbounds nuw i8, ptr %0, i64 32
  %11 = load ptr, ptr %10, align 8, !tbaa !30
  %.not29 = icmp eq ptr %11, null
  br i1 %.not29, label %16, label %12

12:                                               ; preds = %9
  %13 = getelementptr inbounds nuw i8, ptr %11, i64 8
  %14 = load ptr, ptr %13, align 8, !tbaa !27
  %.not.i = icmp eq ptr %14, null
  br i1 %.not.i, label %Vec_PtrFree.exit, label %15

15:                                               ; preds = %12
  tail call void @free(ptr noundef nonnull %14) #18
  br label %Vec_PtrFree.exit

Vec_PtrFree.exit:                                 ; preds = %12, %15
  tail call void @free(ptr noundef nonnull %11) #18
  br label %16

16:                                               ; preds = %Vec_PtrFree.exit, %9
  %17 = getelementptr inbounds nuw i8, ptr %0, i64 64
  %18 = load ptr, ptr %17, align 8, !tbaa !32
  %.not30 = icmp eq ptr %18, null
  br i1 %.not30, label %23, label %19

19:                                               ; preds = %16
  %20 = getelementptr inbounds nuw i8, ptr %18, i64 8
  %21 = load ptr, ptr %20, align 8, !tbaa !27
  %.not.i36 = icmp eq ptr %21, null
  br i1 %.not.i36, label %Vec_PtrFree.exit37, label %22

22:                                               ; preds = %19
  tail call void @free(ptr noundef nonnull %21) #18
  br label %Vec_PtrFree.exit37

Vec_PtrFree.exit37:                               ; preds = %19, %22
  tail call void @free(ptr noundef nonnull %18) #18
  br label %23

23:                                               ; preds = %Vec_PtrFree.exit37, %16
  %24 = getelementptr inbounds nuw i8, ptr %0, i64 56
  %25 = load ptr, ptr %24, align 8, !tbaa !31
  %.not31 = icmp eq ptr %25, null
  br i1 %.not31, label %30, label %26

26:                                               ; preds = %23
  %27 = getelementptr inbounds nuw i8, ptr %25, i64 8
  %28 = load ptr, ptr %27, align 8, !tbaa !27
  %.not.i38 = icmp eq ptr %28, null
  br i1 %.not.i38, label %Vec_PtrFree.exit39, label %29

29:                                               ; preds = %26
  tail call void @free(ptr noundef nonnull %28) #18
  br label %Vec_PtrFree.exit39

Vec_PtrFree.exit39:                               ; preds = %26, %29
  tail call void @free(ptr noundef nonnull %25) #18
  br label %30

30:                                               ; preds = %Vec_PtrFree.exit39, %23
  %31 = getelementptr inbounds nuw i8, ptr %0, i64 24
  %32 = load ptr, ptr %31, align 8, !tbaa !29
  %.not32 = icmp eq ptr %32, null
  br i1 %.not32, label %37, label %33

33:                                               ; preds = %30
  %34 = getelementptr inbounds nuw i8, ptr %32, i64 8
  %35 = load ptr, ptr %34, align 8, !tbaa !27
  %.not.i40 = icmp eq ptr %35, null
  br i1 %.not.i40, label %Vec_PtrFree.exit41, label %36

36:                                               ; preds = %33
  tail call void @free(ptr noundef nonnull %35) #18
  br label %Vec_PtrFree.exit41

Vec_PtrFree.exit41:                               ; preds = %33, %36
  tail call void @free(ptr noundef nonnull %32) #18
  br label %37

37:                                               ; preds = %Vec_PtrFree.exit41, %30
  %38 = getelementptr inbounds nuw i8, ptr %0, i64 16
  %39 = load ptr, ptr %38, align 8, !tbaa !28
  %.not33 = icmp eq ptr %39, null
  br i1 %.not33, label %44, label %40

40:                                               ; preds = %37
  %41 = getelementptr inbounds nuw i8, ptr %39, i64 8
  %42 = load ptr, ptr %41, align 8, !tbaa !27
  %.not.i42 = icmp eq ptr %42, null
  br i1 %.not.i42, label %Vec_PtrFree.exit43, label %43

43:                                               ; preds = %40
  tail call void @free(ptr noundef nonnull %42) #18
  br label %Vec_PtrFree.exit43

Vec_PtrFree.exit43:                               ; preds = %40, %43
  tail call void @free(ptr noundef nonnull %39) #18
  br label %44

44:                                               ; preds = %Vec_PtrFree.exit43, %37
  %45 = getelementptr inbounds nuw i8, ptr %0, i64 80
  %46 = load ptr, ptr %45, align 8, !tbaa !37
  %.not34 = icmp eq ptr %46, null
  br i1 %.not34, label %51, label %47

47:                                               ; preds = %44
  %48 = getelementptr inbounds nuw i8, ptr %46, i64 8
  %49 = load ptr, ptr %48, align 8, !tbaa !38
  %.not.i44 = icmp eq ptr %49, null
  br i1 %.not.i44, label %Vec_IntFree.exit, label %50

50:                                               ; preds = %47
  tail call void @free(ptr noundef nonnull %49) #18
  br label %Vec_IntFree.exit

Vec_IntFree.exit:                                 ; preds = %47, %50
  tail call void @free(ptr noundef nonnull %46) #18
  br label %51

51:                                               ; preds = %Vec_IntFree.exit, %44
  tail call void @free(ptr noundef nonnull %0) #18
  ret void
}